target datalayout = "e-m:e-p270:32:32-p271:32:32-p272:64:64-i64:64-i128:128-f80:128-n8:16:32:64-S128"
target triple = "x86_64-pc-linux-gnu"

%struct.AVFilterContext = type { ptr, ptr, ptr, ptr, ptr, i32, ptr, ptr, i32, ptr, ptr, i32, i32, ptr, ptr, ptr, ptr, i32, ptr, i32, i32 }
%struct.SpectrumSynthContext = type { ptr, i32, i32, i32, i32, i32, float, i32, ptr, ptr, ptr, ptr, ptr, ptr, i32, i32, i32, i32, i32, i32, i32, i32, i64, float, ptr, ptr }

; Function Attrs: cold nounwind optsize uwtable
define internal void @uninit(ptr noundef %0) #0 {
  %2 = alloca ptr, align 8
  %3 = alloca ptr, align 8
  %4 = alloca i32, align 4
  store ptr %0, ptr %2, align 8, !tbaa !4
  call void @llvm.lifetime.start.p0(i64 8, ptr %3) #10
  %5 = load ptr, ptr %2, align 8, !tbaa !4
  %6 = getelementptr inbounds nuw %struct.AVFilterContext, ptr %5, i32 0, i32 9
  %7 = load ptr, ptr %6, align 8, !tbaa !9
  store ptr %7, ptr %3, align 8, !tbaa !22
  call void @llvm.lifetime.start.p0(i64 4, ptr %4) #10
  %8 = load ptr, ptr %3, align 8, !tbaa !22
  %9 = getelementptr inbounds nuw %struct.SpectrumSynthContext, ptr %8, i32 0, i32 8
  call void @av_frame_free(ptr noundef %9)
  %10 = load ptr, ptr %3, align 8, !tbaa !22
  %11 = getelementptr inbounds nuw %struct.SpectrumSynthContext, ptr %10, i32 0, i32 9
  call void @av_frame_free(ptr noundef %11)
  %12 = load ptr, ptr %3, align 8, !tbaa !22
  %13 = getelementptr inbounds nuw %struct.SpectrumSynthContext, ptr %12, i32 0, i32 24
  call void @av_frame_free(ptr noundef %13)
  %14 = load ptr, ptr %3, align 8, !tbaa !22
  %15 = getelementptr inbounds nuw %struct.SpectrumSynthContext, ptr %14, i32 0, i32 10
  call void @av_tx_uninit(ptr noundef %15)
  %16 = load ptr, ptr %3, align 8, !tbaa !22
  %17 = getelementptr inbounds nuw %struct.SpectrumSynthContext, ptr %16, i32 0, i32 12
  %18 = load ptr, ptr %17, align 8, !tbaa !24
  %19 = icmp ne ptr %18, null
  br i1 %19, label %20, label %38

20:                                               ; preds = %1
  store i32 0, ptr %4, align 4, !tbaa !32
  br label %21

21:                                               ; preds = %34, %20
  %22 = load i32, ptr %4, align 4, !tbaa !32
  %23 = load ptr, ptr %3, align 8, !tbaa !22
  %24 = getelementptr inbounds nuw %struct.SpectrumSynthContext, ptr %23, i32 0, i32 2
  %25 = load i32, ptr %24, align 4, !tbaa !33
  %26 = icmp slt i32 %22, %25
  br i1 %26, label %27, label %37

27:                                               ; preds = %21
  %28 = load ptr, ptr %3, align 8, !tbaa !22
  %29 = getelementptr inbounds nuw %struct.SpectrumSynthContext, ptr %28, i32 0, i32 12
  %30 = load ptr, ptr %29, align 8, !tbaa !24
  %31 = load i32, ptr %4, align 4, !tbaa !32
  %32 = sext i32 %31 to i64
  %33 = getelementptr inbounds ptr, ptr %30, i64 %32
  call void @av_freep(ptr noundef %33)
  br label %34

34:                                               ; preds = %27
  %35 = load i32, ptr %4, align 4, !tbaa !32
  %36 = add nsw i32 %35, 1
  store i32 %36, ptr %4, align 4, !tbaa !32
  br label %21, !llvm.loop !34

37:                                               ; preds = %21
  br label %38

38:                                               ; preds = %37, %1
  %39 = load ptr, ptr %3, align 8, !tbaa !22
  %40 = getelementptr inbounds nuw %struct.SpectrumSynthContext, ptr %39, i32 0, i32 13
  %41 = load ptr, ptr %40, align 8, !tbaa !36
  %42 = icmp ne ptr %41, null
  br i1 %42, label %43, label %61

43:                                               ; preds = %38
  store i32 0, ptr %4, align 4, !tbaa !32
  br label %44

44:                                               ; preds = %57, %43
  %45 = load i32, ptr %4, align 4, !tbaa !32
  %46 = load ptr, ptr %3, align 8, !tbaa !22
  %47 = getelementptr inbounds nuw %struct.SpectrumSynthContext, ptr %46, i32 0, i32 2
  %48 = load i32, ptr %47, align 4, !tbaa !33
  %49 = icmp slt i32 %45, %48
  br i1 %49, label %50, label %60

50:                                               ; preds = %44
  %51 = load ptr, ptr %3, align 8, !tbaa !22
  %52 = getelementptr inbounds nuw %struct.SpectrumSynthContext, ptr %51, i32 0, i32 13
  %53 = load ptr, ptr %52, align 8, !tbaa !36
  %54 = load i32, ptr %4, align 4, !tbaa !32
  %55 = sext i32 %54 to i64
  %56 = getelementptr inbounds ptr, ptr %53, i64 %55
  call void @av_freep(ptr noundef %56)
  br label %57

57:                                               ; preds = %50
  %58 = load i32, ptr %4, align 4, !tbaa !32
  %59 = add nsw i32 %58, 1
  store i32 %59, ptr %4, align 4, !tbaa !32
  br label %44, !llvm.loop !37

60:                                               ; preds = %44
  br label %61

61:                                               ; preds = %60, %38
  %62 = load ptr, ptr %3, align 8, !tbaa !22
  %63 = getelementptr inbounds nuw %struct.SpectrumSynthContext, ptr %62, i32 0, i32 12
  call void @av_freep(ptr noundef %63)
  %64 = load ptr, ptr %3, align 8, !tbaa !22
  %65 = getelementptr inbounds nuw %struct.SpectrumSynthContext, ptr %64, i32 0, i32 13
  call void @av_freep(ptr noundef %65)
  %66 = load ptr, ptr %3, align 8, !tbaa !22
  %67 = getelementptr inbounds nuw %struct.SpectrumSynthContext, ptr %66, i32 0, i32 25
  call void @av_freep(ptr noundef %67)
  call void @llvm.lifetime.end.p0(i64 4, ptr %4) #10
  call void @llvm.lifetime.end.p0(i64 8, ptr %3) #10
  ret void
}