; Function Attrs: cold nounwind optsize uwtable
define internal void @uninit(ptr noundef readonly captures(none) %0) #0 {
  %2 = getelementptr inbounds nuw i8, ptr %0, i64 72
  %3 = load ptr, ptr %2, align 8, !tbaa !4
  %4 = getelementptr inbounds nuw i8, ptr %3, i64 40
  tail call void @av_frame_free(ptr noundef nonnull %4) #10
  %5 = getelementptr inbounds nuw i8, ptr %3, i64 48
  tail call void @av_frame_free(ptr noundef nonnull %5) #10
  %6 = getelementptr inbounds nuw i8, ptr %3, i64 136
  tail call void @av_frame_free(ptr noundef nonnull %6) #10
  %7 = getelementptr inbounds nuw i8, ptr %3, i64 56
  tail call void @av_tx_uninit(ptr noundef nonnull %7) #10
  %8 = getelementptr inbounds nuw i8, ptr %3, i64 72
  %9 = load ptr, ptr %8, align 8, !tbaa !20
  %.not = icmp eq ptr %9, null
  br i1 %.not, label %.loopexit21, label %.preheader20

.preheader20:                                     ; preds = %1
  %10 = getelementptr inbounds nuw i8, ptr %3, i64 12
  %11 = load i32, ptr %10, align 4, !tbaa !28
  %12 = icmp sgt i32 %11, 0
  br i1 %12, label %.lr.ph, label %.loopexit21

.lr.ph:                                           ; preds = %.preheader20, %.lr.ph
  %indvars.iv = phi i64 [ %indvars.iv.next, %.lr.ph ], [ 0, %.preheader20 ]
  %13 = load ptr, ptr %8, align 8, !tbaa !20
  %14 = getelementptr inbounds nuw ptr, ptr %13, i64 %indvars.iv
  tail call void @av_freep(ptr noundef %14) #10
  %indvars.iv.next = add nuw nsw i64 %indvars.iv, 1
  %15 = load i32, ptr %10, align 4, !tbaa !28
  %16 = sext i32 %15 to i64
  %17 = icmp slt i64 %indvars.iv.next, %16
  br i1 %17, label %.lr.ph, label %.loopexit21, !llvm.loop !29

.loopexit21:                                      ; preds = %.lr.ph, %.preheader20, %1
  %18 = getelementptr inbounds nuw i8, ptr %3, i64 80
  %19 = load ptr, ptr %18, align 8, !tbaa !31
  %.not19 = icmp eq ptr %19, null
  br i1 %.not19, label %.loopexit, label %.preheader

.preheader:                                       ; preds = %.loopexit21
  %20 = getelementptr inbounds nuw i8, ptr %3, i64 12
  %21 = load i32, ptr %20, align 4, !tbaa !28
  %22 = icmp sgt i32 %21, 0
  br i1 %22, label %.lr.ph24, label %.loopexit

.lr.ph24:                                         ; preds = %.preheader, %.lr.ph24
  %indvars.iv26 = phi i64 [ %indvars.iv.next27, %.lr.ph24 ], [ 0, %.preheader ]
  %23 = load ptr, ptr %18, align 8, !tbaa !31
  %24 = getelementptr inbounds nuw ptr, ptr %23, i64 %indvars.iv26
  tail call void @av_freep(ptr noundef %24) #10
  %indvars.iv.next27 = add nuw nsw i64 %indvars.iv26, 1
  %25 = load i32, ptr %20, align 4, !tbaa !28
  %26 = sext i32 %25 to i64
  %27 = icmp slt i64 %indvars.iv.next27, %26
  br i1 %27, label %.lr.ph24, label %.loopexit, !llvm.loop !32

.loopexit:                                        ; preds = %.lr.ph24, %.preheader, %.loopexit21
  tail call void @av_freep(ptr noundef nonnull %8) #10
  tail call void @av_freep(ptr noundef nonnull %18) #10
  %28 = getelementptr inbounds nuw i8, ptr %3, i64 144
  tail call void @av_freep(ptr noundef nonnull %28) #10
  ret void
}